target datalayout = "e-m:e-p270:32:32-p271:32:32-p272:64:64-i64:64-i128:128-f80:128-n8:16:32:64-S128"
target triple = "x86_64-pc-linux-gnu"

%struct.saucy = type { i32, ptr, ptr, ptr, ptr, %struct.coloring, %struct.coloring, ptr, ptr, ptr, ptr, ptr, i32, i32, ptr, i32, ptr, ptr, ptr, ptr, ptr, ptr, ptr, i32, i32, ptr, i32, ptr, i32, i32, ptr, ptr, ptr, ptr, ptr, ptr, ptr, ptr, ptr, ptr, i32, ptr, ptr, ptr, i32, ptr, i32, ptr, ptr, ptr, ptr, i32, ptr, ptr, i32, ptr, ptr, ptr, ptr, ptr, ptr, ptr, ptr, ptr, ptr, ptr, ptr, ptr, ptr, ptr, ptr, ptr, ptr, ptr, ptr, ptr, ptr, double, i32, i32, i32, ptr, ptr, ptr, ptr }
%struct.coloring = type { ptr, ptr, ptr, ptr }
%struct.Vec_Ptr_t_ = type { i32, i32, ptr }
%struct.saucy_graph = type { i32, i32, ptr, ptr }

; Function Attrs: nounwind uwtable
define internal i32 @refineByDepGraph(ptr noundef %0, ptr noundef %1) #0 {
  %3 = alloca ptr, align 8
  %4 = alloca ptr, align 8
  store ptr %0, ptr %3, align 8
  store ptr %1, ptr %4, align 8
  %5 = load ptr, ptr %3, align 8
  %6 = getelementptr inbounds %struct.saucy, ptr %5, i32 0, i32 63
  %7 = load ptr, ptr %6, align 8
  %8 = load ptr, ptr %3, align 8
  %9 = getelementptr inbounds %struct.saucy, ptr %8, i32 0, i32 1
  store ptr %7, ptr %9, align 8
  %10 = load ptr, ptr %3, align 8
  %11 = getelementptr inbounds %struct.saucy, ptr %10, i32 0, i32 64
  %12 = load ptr, ptr %11, align 8
  %13 = load ptr, ptr %3, align 8
  %14 = getelementptr inbounds %struct.saucy, ptr %13, i32 0, i32 2
  store ptr %12, ptr %14, align 8
  %15 = load ptr, ptr %3, align 8
  %16 = load ptr, ptr %4, align 8
  %17 = call i32 @refine(ptr noundef %15, ptr noundef %16)
  ret i32 %17
}

; Function Attrs: nounwind uwtable
define internal void @add_induce(ptr noundef %0, ptr noundef %1, i32 noundef %2) #0 {
  %4 = alloca ptr, align 8
  %5 = alloca ptr, align 8
  %6 = alloca i32, align 4
  store ptr %0, ptr %4, align 8
  store ptr %1, ptr %5, align 8
  store i32 %2, ptr %6, align 4
  %7 = load ptr, ptr %5, align 8
  %8 = getelementptr inbounds %struct.coloring, ptr %7, i32 0, i32 3
  %9 = load ptr, ptr %8, align 8
  %10 = load i32, ptr %6, align 4
  %11 = sext i32 %10 to i64
  %12 = getelementptr inbounds i32, ptr %9, i64 %11
  %13 = load i32, ptr %12, align 4
  %14 = icmp ne i32 %13, 0
  br i1 %14, label %26, label %15

15:                                               ; preds = %3
  %16 = load i32, ptr %6, align 4
  %17 = load ptr, ptr %4, align 8
  %18 = getelementptr inbounds %struct.saucy, ptr %17, i32 0, i32 11
  %19 = load ptr, ptr %18, align 8
  %20 = load ptr, ptr %4, align 8
  %21 = getelementptr inbounds %struct.saucy, ptr %20, i32 0, i32 13
  %22 = load i32, ptr %21, align 4
  %23 = add nsw i32 %22, 1
  store i32 %23, ptr %21, align 4
  %24 = sext i32 %22 to i64
  %25 = getelementptr inbounds i32, ptr %19, i64 %24
  store i32 %16, ptr %25, align 4
  br label %37

26:                                               ; preds = %3
  %27 = load i32, ptr %6, align 4
  %28 = load ptr, ptr %4, align 8
  %29 = getelementptr inbounds %struct.saucy, ptr %28, i32 0, i32 10
  %30 = load ptr, ptr %29, align 8
  %31 = load ptr, ptr %4, align 8
  %32 = getelementptr inbounds %struct.saucy, ptr %31, i32 0, i32 12
  %33 = load i32, ptr %32, align 8
  %34 = add nsw i32 %33, 1
  store i32 %34, ptr %32, align 8
  %35 = sext i32 %33 to i64
  %36 = getelementptr inbounds i32, ptr %30, i64 %35
  store i32 %27, ptr %36, align 4
  br label %37

37:                                               ; preds = %26, %15
  %38 = load ptr, ptr %4, align 8
  %39 = getelementptr inbounds %struct.saucy, ptr %38, i32 0, i32 9
  %40 = load ptr, ptr %39, align 8
  %41 = load i32, ptr %6, align 4
  %42 = sext i32 %41 to i64
  %43 = getelementptr inbounds i8, ptr %40, i64 %42
  store i8 1, ptr %43, align 1
  ret void
}

; Function Attrs: nounwind uwtable
define internal ptr @Vec_PtrEntry(ptr noundef %0, i32 noundef %1) #0 {
  %3 = alloca ptr, align 8
  %4 = alloca i32, align 4
  store ptr %0, ptr %3, align 8
  store i32 %1, ptr %4, align 4
  %5 = load ptr, ptr %3, align 8
  %6 = getelementptr inbounds %struct.Vec_Ptr_t_, ptr %5, i32 0, i32 2
  %7 = load ptr, ptr %6, align 8
  %8 = load i32, ptr %4, align 4
  %9 = sext i32 %8 to i64
  %10 = getelementptr inbounds ptr, ptr %7, i64 %9
  %11 = load ptr, ptr %10, align 8
  ret ptr %11
}

; Function Attrs: nounwind uwtable
define internal i32 @refineBySim1_other(ptr noundef %0, ptr noundef %1) #0 {
  %3 = alloca i32, align 4
  %4 = alloca ptr, align 8
  %5 = alloca ptr, align 8
  %6 = alloca ptr, align 8
  %7 = alloca ptr, align 8
  %8 = alloca i32, align 4
  %9 = alloca i32, align 4
  %10 = alloca i32, align 4
  %11 = alloca i32, align 4
  store ptr %0, ptr %4, align 8
  store ptr %1, ptr %5, align 8
  %12 = load ptr, ptr %4, align 8
  %13 = getelementptr inbounds %struct.saucy, ptr %12, i32 0, i32 71
  %14 = load ptr, ptr %13, align 8
  %15 = load ptr, ptr %4, align 8
  %16 = getelementptr inbounds %struct.saucy, ptr %15, i32 0, i32 23
  %17 = load i32, ptr %16, align 8
  %18 = sub nsw i32 %17, 1
  %19 = sext i32 %18 to i64
  %20 = getelementptr inbounds i32, ptr %14, i64 %19
  %21 = load i32, ptr %20, align 4
  store i32 %21, ptr %8, align 4
  br label %22

22:                                               ; preds = %164, %2
  %23 = load i32, ptr %8, align 4
  %24 = load ptr, ptr %4, align 8
  %25 = getelementptr inbounds %struct.saucy, ptr %24, i32 0, i32 71
  %26 = load ptr, ptr %25, align 8
  %27 = load ptr, ptr %4, align 8
  %28 = getelementptr inbounds %struct.saucy, ptr %27, i32 0, i32 23
  %29 = load i32, ptr %28, align 8
  %30 = sext i32 %29 to i64
  %31 = getelementptr inbounds i32, ptr %26, i64 %30
  %32 = load i32, ptr %31, align 4
  %33 = icmp slt i32 %23, %32
  br i1 %33, label %34, label %167

34:                                               ; preds = %22
  %35 = load ptr, ptr %4, align 8
  %36 = getelementptr inbounds %struct.saucy, ptr %35, i32 0, i32 70
  %37 = load ptr, ptr %36, align 8
  %38 = load i32, ptr %8, align 4
  %39 = call ptr @Vec_PtrEntry(ptr noundef %37, i32 noundef %38)
  store ptr %39, ptr %7, align 8
  %40 = load ptr, ptr %4, align 8
  %41 = getelementptr inbounds %struct.saucy, ptr %40, i32 0, i32 61
  %42 = load ptr, ptr %41, align 8
  %43 = load ptr, ptr %5, align 8
  %44 = load ptr, ptr %7, align 8
  %45 = load ptr, ptr %4, align 8
  %46 = getelementptr inbounds %struct.saucy, ptr %45, i32 0, i32 65
  %47 = load ptr, ptr %46, align 8
  %48 = load ptr, ptr %4, align 8
  %49 = getelementptr inbounds %struct.saucy, ptr %48, i32 0, i32 66
  %50 = load ptr, ptr %49, align 8
  %51 = call ptr @buildSim1Graph(ptr noundef %42, ptr noundef %43, ptr noundef %44, ptr noundef %47, ptr noundef %50)
  store ptr %51, ptr %6, align 8
  %52 = load ptr, ptr %6, align 8
  %53 = icmp eq ptr %52, null
  br i1 %53, label %54, label %55

54:                                               ; preds = %34
  store i32 0, ptr %3, align 4
  br label %168

55:                                               ; preds = %34
  %56 = load ptr, ptr %6, align 8
  %57 = getelementptr inbounds %struct.saucy_graph, ptr %56, i32 0, i32 2
  %58 = load ptr, ptr %57, align 8
  %59 = load ptr, ptr %4, align 8
  %60 = getelementptr inbounds %struct.saucy, ptr %59, i32 0, i32 1
  store ptr %58, ptr %60, align 8
  %61 = load ptr, ptr %6, align 8
  %62 = getelementptr inbounds %struct.saucy_graph, ptr %61, i32 0, i32 3
  %63 = load ptr, ptr %62, align 8
  %64 = load ptr, ptr %4, align 8
  %65 = getelementptr inbounds %struct.saucy, ptr %64, i32 0, i32 2
  store ptr %63, ptr %65, align 8
  %66 = load ptr, ptr %4, align 8
  %67 = getelementptr inbounds %struct.saucy, ptr %66, i32 0, i32 40
  %68 = load i32, ptr %67, align 8
  store i32 %68, ptr %11, align 4
  store i32 0, ptr %9, align 4
  br label %69

69:                                               ; preds = %79, %55
  %70 = load i32, ptr %9, align 4
  %71 = load ptr, ptr %4, align 8
  %72 = getelementptr inbounds %struct.saucy, ptr %71, i32 0, i32 0
  %73 = load i32, ptr %72, align 8
  %74 = icmp slt i32 %70, %73
  br i1 %74, label %75, label %90

75:                                               ; preds = %69
  %76 = load ptr, ptr %4, align 8
  %77 = load ptr, ptr %5, align 8
  %78 = load i32, ptr %9, align 4
  call void @add_induce(ptr noundef %76, ptr noundef %77, i32 noundef %78)
  br label %79

79:                                               ; preds = %75
  %80 = load ptr, ptr %5, align 8
  %81 = getelementptr inbounds %struct.coloring, ptr %80, i32 0, i32 3
  %82 = load ptr, ptr %81, align 8
  %83 = load i32, ptr %9, align 4
  %84 = sext i32 %83 to i64
  %85 = getelementptr inbounds i32, ptr %82, i64 %84
  %86 = load i32, ptr %85, align 4
  %87 = add nsw i32 %86, 1
  %88 = load i32, ptr %9, align 4
  %89 = add nsw i32 %88, %87
  store i32 %89, ptr %9, align 4
  br label %69, !llvm.loop !42

90:                                               ; preds = %69
  %91 = load ptr, ptr %4, align 8
  %92 = load ptr, ptr %5, align 8
  %93 = call i32 @refine(ptr noundef %91, ptr noundef %92)
  store i32 %93, ptr %10, align 4
  %94 = load ptr, ptr %4, align 8
  %95 = getelementptr inbounds %struct.saucy, ptr %94, i32 0, i32 40
  %96 = load i32, ptr %95, align 8
  %97 = load i32, ptr %11, align 4
  %98 = icmp eq i32 %96, %97
  br i1 %98, label %99, label %100

99:                                               ; preds = %90
  store i32 0, ptr %10, align 4
  br label %100

100:                                              ; preds = %99, %90
  %101 = load i32, ptr %10, align 4
  %102 = icmp ne i32 %101, 0
  br i1 %102, label %103, label %129

103:                                              ; preds = %100
  store i32 0, ptr %9, align 4
  br label %104

104:                                              ; preds = %114, %103
  %105 = load i32, ptr %9, align 4
  %106 = load ptr, ptr %4, align 8
  %107 = getelementptr inbounds %struct.saucy, ptr %106, i32 0, i32 0
  %108 = load i32, ptr %107, align 8
  %109 = icmp slt i32 %105, %108
  br i1 %109, label %110, label %125

110:                                              ; preds = %104
  %111 = load ptr, ptr %4, align 8
  %112 = load ptr, ptr %5, align 8
  %113 = load i32, ptr %9, align 4
  call void @add_induce(ptr noundef %111, ptr noundef %112, i32 noundef %113)
  br label %114

114:                                              ; preds = %110
  %115 = load ptr, ptr %5, align 8
  %116 = getelementptr inbounds %struct.coloring, ptr %115, i32 0, i32 3
  %117 = load ptr, ptr %116, align 8
  %118 = load i32, ptr %9, align 4
  %119 = sext i32 %118 to i64
  %120 = getelementptr inbounds i32, ptr %117, i64 %119
  %121 = load i32, ptr %120, align 4
  %122 = add nsw i32 %121, 1
  %123 = load i32, ptr %9, align 4
  %124 = add nsw i32 %123, %122
  store i32 %124, ptr %9, align 4
  br label %104, !llvm.loop !43

125:                                              ; preds = %104
  %126 = load ptr, ptr %4, align 8
  %127 = load ptr, ptr %5, align 8
  %128 = call i32 @refineByDepGraph(ptr noundef %126, ptr noundef %127)
  store i32 %128, ptr %10, align 4
  br label %129

129:                                              ; preds = %125, %100
  %130 = load ptr, ptr %6, align 8
  %131 = getelementptr inbounds %struct.saucy_graph, ptr %130, i32 0, i32 2
  %132 = load ptr, ptr %131, align 8
  %133 = icmp ne ptr %132, null
  br i1 %133, label %134, label %140

134:                                              ; preds = %129
  %135 = load ptr, ptr %6, align 8
  %136 = getelementptr inbounds %struct.saucy_graph, ptr %135, i32 0, i32 2
  %137 = load ptr, ptr %136, align 8
  call void @free(ptr noundef %137) #10
  %138 = load ptr, ptr %6, align 8
  %139 = getelementptr inbounds %struct.saucy_graph, ptr %138, i32 0, i32 2
  store ptr null, ptr %139, align 8
  br label %141

140:                                              ; preds = %129
  br label %141

141:                                              ; preds = %140, %134
  %142 = load ptr, ptr %6, align 8
  %143 = getelementptr inbounds %struct.saucy_graph, ptr %142, i32 0, i32 3
  %144 = load ptr, ptr %143, align 8
  %145 = icmp ne ptr %144, null
  br i1 %145, label %146, label %152

146:                                              ; preds = %141
  %147 = load ptr, ptr %6, align 8
  %148 = getelementptr inbounds %struct.saucy_graph, ptr %147, i32 0, i32 3
  %149 = load ptr, ptr %148, align 8
  call void @free(ptr noundef %149) #10
  %150 = load ptr, ptr %6, align 8
  %151 = getelementptr inbounds %struct.saucy_graph, ptr %150, i32 0, i32 3
  store ptr null, ptr %151, align 8
  br label %153

152:                                              ; preds = %141
  br label %153

153:                                              ; preds = %152, %146
  %154 = load ptr, ptr %6, align 8
  %155 = icmp ne ptr %154, null
  br i1 %155, label %156, label %158

156:                                              ; preds = %153
  %157 = load ptr, ptr %6, align 8
  call void @free(ptr noundef %157) #10
  store ptr null, ptr %6, align 8
  br label %159

158:                                              ; preds = %153
  br label %159

159:                                              ; preds = %158, %156
  %160 = load i32, ptr %10, align 4
  %161 = icmp ne i32 %160, 0
  br i1 %161, label %163, label %162

162:                                              ; preds = %159
  store i32 0, ptr %3, align 4
  br label %168

163:                                              ; preds = %159
  br label %164

164:                                              ; preds = %163
  %165 = load i32, ptr %8, align 4
  %166 = add nsw i32 %165, 1
  store i32 %166, ptr %8, align 4
  br label %22, !llvm.loop !44

167:                                              ; preds = %22
  store i32 1, ptr %3, align 4
  br label %168

168:                                              ; preds = %167, %162, %54
  %169 = load i32, ptr %3, align 4
  ret i32 %169
}