; Function Attrs: nounwind uwtable
define internal range(i32 0, 2) i32 @refineBySim1_other(ptr noundef %0, ptr noundef %1) #0 {
  %3 = getelementptr inbounds nuw i8, ptr %0, i64 592
  %4 = load ptr, ptr %3, align 8
  %5 = getelementptr inbounds nuw i8, ptr %0, i64 224
  %6 = load i32, ptr %5, align 8
  %7 = sext i32 %6 to i64
  %8 = getelementptr i32, ptr %4, i64 %7
  %9 = getelementptr i8, ptr %8, i64 -4
  %10 = load i32, ptr %9, align 4
  %11 = getelementptr inbounds nuw i8, ptr %0, i64 584
  %12 = load i32, ptr %8, align 4
  %13 = icmp slt i32 %10, %12
  br i1 %13, label %.lr.ph73, label %._crit_edge74

.lr.ph73:                                         ; preds = %2
  %14 = getelementptr inbounds nuw i8, ptr %0, i64 512
  %15 = getelementptr inbounds nuw i8, ptr %0, i64 544
  %16 = getelementptr inbounds nuw i8, ptr %0, i64 552
  %17 = getelementptr inbounds nuw i8, ptr %0, i64 8
  %18 = getelementptr inbounds nuw i8, ptr %0, i64 16
  %19 = getelementptr inbounds nuw i8, ptr %0, i64 344
  %20 = getelementptr i8, ptr %1, i64 24
  %21 = getelementptr inbounds nuw i8, ptr %0, i64 128
  %22 = getelementptr inbounds nuw i8, ptr %0, i64 144
  %23 = getelementptr inbounds nuw i8, ptr %0, i64 136
  %24 = getelementptr inbounds nuw i8, ptr %0, i64 148
  %25 = getelementptr inbounds nuw i8, ptr %0, i64 120
  %26 = getelementptr inbounds nuw i8, ptr %0, i64 528
  %27 = getelementptr inbounds nuw i8, ptr %0, i64 536
  %28 = sext i32 %10 to i64
  br label %37

29:                                               ; preds = %112
  %indvars.iv.next = add nsw i64 %indvars.iv, 1
  %30 = load ptr, ptr %3, align 8
  %31 = load i32, ptr %5, align 8
  %32 = sext i32 %31 to i64
  %33 = getelementptr inbounds i32, ptr %30, i64 %32
  %34 = load i32, ptr %33, align 4
  %35 = sext i32 %34 to i64
  %36 = icmp slt i64 %indvars.iv.next, %35
  br i1 %36, label %37, label %._crit_edge74, !llvm.loop !72

37:                                               ; preds = %.lr.ph73, %29
  %indvars.iv = phi i64 [ %28, %.lr.ph73 ], [ %indvars.iv.next, %29 ]
  %38 = load ptr, ptr %11, align 8
  %39 = getelementptr i8, ptr %38, i64 8
  %.val = load ptr, ptr %39, align 8
  %40 = getelementptr inbounds ptr, ptr %.val, i64 %indvars.iv
  %41 = load ptr, ptr %40, align 8
  %42 = load ptr, ptr %14, align 8
  %43 = load ptr, ptr %15, align 8
  %44 = load ptr, ptr %16, align 8
  %45 = tail call fastcc ptr @buildSim1Graph(ptr noundef %42, ptr noundef %1, ptr noundef %41, ptr noundef %43, ptr noundef %44)
  %46 = icmp eq ptr %45, null
  br i1 %46, label %._crit_edge74, label %47

47:                                               ; preds = %37
  %48 = getelementptr inbounds nuw i8, ptr %45, i64 8
  %49 = load ptr, ptr %48, align 8
  store ptr %49, ptr %17, align 8
  %50 = getelementptr inbounds nuw i8, ptr %45, i64 16
  %51 = load ptr, ptr %50, align 8
  store ptr %51, ptr %18, align 8
  %52 = load i32, ptr %19, align 8
  %53 = load i32, ptr %0, align 8
  %54 = icmp sgt i32 %53, 0
  br i1 %54, label %.lr.ph.preheader, label %._crit_edge

.lr.ph.preheader:                                 ; preds = %47
  %.val62.pre = load ptr, ptr %20, align 8
  br label %.lr.ph

.lr.ph:                                           ; preds = %.lr.ph.preheader, %add_induce.exit
  %.val62 = phi ptr [ %70, %add_induce.exit ], [ %.val62.pre, %.lr.ph.preheader ]
  %.05267 = phi i32 [ %74, %add_induce.exit ], [ 0, %.lr.ph.preheader ]
  %55 = sext i32 %.05267 to i64
  %56 = getelementptr inbounds i32, ptr %.val62, i64 %55
  %57 = load i32, ptr %56, align 4
  %.not.i = icmp eq i32 %57, 0
  br i1 %.not.i, label %58, label %62

58:                                               ; preds = %.lr.ph
  %59 = load ptr, ptr %23, align 8
  %60 = load i32, ptr %24, align 4
  %61 = add nsw i32 %60, 1
  store i32 %61, ptr %24, align 4
  br label %add_induce.exit

62:                                               ; preds = %.lr.ph
  %63 = load ptr, ptr %21, align 8
  %64 = load i32, ptr %22, align 8
  %65 = add nsw i32 %64, 1
  store i32 %65, ptr %22, align 8
  br label %add_induce.exit

add_induce.exit:                                  ; preds = %58, %62
  %.sink.i = phi i32 [ %64, %62 ], [ %60, %58 ]
  %.sink1.i = phi ptr [ %63, %62 ], [ %59, %58 ]
  %66 = sext i32 %.sink.i to i64
  %67 = getelementptr inbounds i32, ptr %.sink1.i, i64 %66
  store i32 %.05267, ptr %67, align 4
  %68 = load ptr, ptr %25, align 8
  %69 = getelementptr inbounds i8, ptr %68, i64 %55
  store i8 1, ptr %69, align 1
  %70 = load ptr, ptr %20, align 8
  %71 = getelementptr inbounds i32, ptr %70, i64 %55
  %72 = load i32, ptr %71, align 4
  %73 = add nsw i32 %.05267, 1
  %74 = add i32 %73, %72
  %75 = load i32, ptr %0, align 8
  %76 = icmp slt i32 %74, %75
  br i1 %76, label %.lr.ph, label %._crit_edge, !llvm.loop !73

._crit_edge:                                      ; preds = %add_induce.exit, %47
  %77 = tail call fastcc i32 @refine(ptr noundef nonnull %0, ptr noundef %1)
  %78 = load i32, ptr %19, align 8
  %79 = icmp eq i32 %78, %52
  %.not57 = icmp eq i32 %77, 0
  %.not = select i1 %79, i1 true, i1 %.not57
  br i1 %.not, label %108, label %.preheader

.preheader:                                       ; preds = %._crit_edge
  %80 = load i32, ptr %0, align 8
  %81 = icmp sgt i32 %80, 0
  br i1 %81, label %.lr.ph69.preheader, label %._crit_edge70

.lr.ph69.preheader:                               ; preds = %.preheader
  %.val61.pre = load ptr, ptr %20, align 8
  br label %.lr.ph69

.lr.ph69:                                         ; preds = %.lr.ph69.preheader, %add_induce.exit66
  %.val61 = phi ptr [ %97, %add_induce.exit66 ], [ %.val61.pre, %.lr.ph69.preheader ]
  %.168 = phi i32 [ %101, %add_induce.exit66 ], [ 0, %.lr.ph69.preheader ]
  %82 = sext i32 %.168 to i64
  %83 = getelementptr inbounds i32, ptr %.val61, i64 %82
  %84 = load i32, ptr %83, align 4
  %.not.i63 = icmp eq i32 %84, 0
  br i1 %.not.i63, label %85, label %89

85:                                               ; preds = %.lr.ph69
  %86 = load ptr, ptr %23, align 8
  %87 = load i32, ptr %24, align 4
  %88 = add nsw i32 %87, 1
  store i32 %88, ptr %24, align 4
  br label %add_induce.exit66

89:                                               ; preds = %.lr.ph69
  %90 = load ptr, ptr %21, align 8
  %91 = load i32, ptr %22, align 8
  %92 = add nsw i32 %91, 1
  store i32 %92, ptr %22, align 8
  br label %add_induce.exit66

add_induce.exit66:                                ; preds = %85, %89
  %.sink.i64 = phi i32 [ %91, %89 ], [ %87, %85 ]
  %.sink1.i65 = phi ptr [ %90, %89 ], [ %86, %85 ]
  %93 = sext i32 %.sink.i64 to i64
  %94 = getelementptr inbounds i32, ptr %.sink1.i65, i64 %93
  store i32 %.168, ptr %94, align 4
  %95 = load ptr, ptr %25, align 8
  %96 = getelementptr inbounds i8, ptr %95, i64 %82
  store i8 1, ptr %96, align 1
  %97 = load ptr, ptr %20, align 8
  %98 = getelementptr inbounds i32, ptr %97, i64 %82
  %99 = load i32, ptr %98, align 4
  %100 = add nsw i32 %.168, 1
  %101 = add i32 %100, %99
  %102 = load i32, ptr %0, align 8
  %103 = icmp slt i32 %101, %102
  br i1 %103, label %.lr.ph69, label %._crit_edge70, !llvm.loop !74

._crit_edge70:                                    ; preds = %add_induce.exit66, %.preheader
  %104 = load ptr, ptr %26, align 8
  store ptr %104, ptr %17, align 8
  %105 = load ptr, ptr %27, align 8
  store ptr %105, ptr %18, align 8
  %106 = tail call fastcc range(i32 0, 2) i32 @refine(ptr noundef nonnull %0, ptr noundef %1)
  %107 = icmp eq i32 %106, 0
  br label %108

108:                                              ; preds = %._crit_edge70, %._crit_edge
  %.051 = phi i1 [ %107, %._crit_edge70 ], [ true, %._crit_edge ]
  %.not58 = icmp eq ptr %49, null
  br i1 %.not58, label %110, label %109

109:                                              ; preds = %108
  tail call void @free(ptr noundef nonnull %49) #24
  br label %110

110:                                              ; preds = %108, %109
  %.not59 = icmp eq ptr %51, null
  br i1 %.not59, label %112, label %111

111:                                              ; preds = %110
  tail call void @free(ptr noundef nonnull %51) #24
  br label %112

112:                                              ; preds = %111, %110
  tail call void @free(ptr noundef nonnull %45) #24
  br i1 %.051, label %._crit_edge74, label %29

._crit_edge74:                                    ; preds = %37, %112, %29, %2
  %.0 = phi i32 [ 1, %2 ], [ 1, %29 ], [ 0, %112 ], [ 0, %37 ]
  ret i32 %.0
}